target datalayout = "e-m:e-p270:32:32-p271:32:32-p272:64:64-i64:64-i128:128-f80:128-n8:16:32:64-S128"
target triple = "x86_64-pc-linux-gnu"

@_ZN10ODDLParser7GrammarL17OpenPropertyTokenE = internal global ptr @.str.24, align 8
@_ZN10ODDLParser7GrammarL18ClosePropertyTokenE = internal global ptr @.str.25, align 8

; Function Attrs: inlinehint mustprogress nounwind uwtable
define linkonce_odr hidden noundef zeroext i1 @_ZN10ODDLParser7isSpaceIcEEbT_(i8 noundef signext %0) #12 comdat {
  %2 = alloca i8, align 1
  store i8 %0, ptr %2, align 1
  %3 = load i8, ptr %2, align 1
  %4 = sext i8 %3 to i32
  %5 = icmp eq i32 32, %4
  br i1 %5, label %10, label %6

6:                                                ; preds = %1
  %7 = load i8, ptr %2, align 1
  %8 = sext i8 %7 to i32
  %9 = icmp eq i32 9, %8
  br label %10

10:                                               ; preds = %6, %1
  %11 = phi i1 [ true, %1 ], [ %9, %6 ]
  ret i1 %11
}

; Function Attrs: inlinehint mustprogress nounwind uwtable
define linkonce_odr hidden noundef zeroext i1 @_ZN10ODDLParser9isNewLineIcEEbT_(i8 noundef signext %0) #12 comdat {
  %2 = alloca i8, align 1
  store i8 %0, ptr %2, align 1
  %3 = load i8, ptr %2, align 1
  %4 = sext i8 %3 to i32
  %5 = icmp eq i32 10, %4
  br i1 %5, label %10, label %6

6:                                                ; preds = %1
  %7 = load i8, ptr %2, align 1
  %8 = sext i8 %7 to i32
  %9 = icmp eq i32 13, %8
  br label %10

10:                                               ; preds = %6, %1
  %11 = phi i1 [ true, %1 ], [ %9, %6 ]
  ret i1 %11
}

; Function Attrs: inlinehint mustprogress uwtable
define linkonce_odr hidden noundef zeroext i1 @_ZN10ODDLParser11isSeparatorIcEEbT_(i8 noundef signext %0) #10 comdat {
  %2 = alloca i1, align 1
  %3 = alloca i8, align 1
  store i8 %0, ptr %3, align 1
  %4 = load i8, ptr %3, align 1
  %5 = call noundef zeroext i1 @_ZN10ODDLParser7isSpaceIcEEbT_(i8 noundef signext %4)
  br i1 %5, label %30, label %6

6:                                                ; preds = %1
  %7 = load i8, ptr %3, align 1
  %8 = sext i8 %7 to i32
  %9 = icmp eq i32 44, %8
  br i1 %9, label %30, label %10

10:                                               ; preds = %6
  %11 = load i8, ptr %3, align 1
  %12 = sext i8 %11 to i32
  %13 = icmp eq i32 123, %12
  br i1 %13, label %30, label %14

14:                                               ; preds = %10
  %15 = load i8, ptr %3, align 1
  %16 = sext i8 %15 to i32
  %17 = icmp eq i32 125, %16
  br i1 %17, label %30, label %18

18:                                               ; preds = %14
  %19 = load i8, ptr %3, align 1
  %20 = sext i8 %19 to i32
  %21 = icmp eq i32 91, %20
  br i1 %21, label %30, label %22

22:                                               ; preds = %18
  %23 = load i8, ptr %3, align 1
  %24 = sext i8 %23 to i32
  %25 = icmp eq i32 40, %24
  br i1 %25, label %30, label %26

26:                                               ; preds = %22
  %27 = load i8, ptr %3, align 1
  %28 = sext i8 %27 to i32
  %29 = icmp eq i32 41, %28
  br i1 %29, label %30, label %31

30:                                               ; preds = %26, %22, %18, %14, %10, %6, %1
  store i1 true, ptr %2, align 1
  br label %32

31:                                               ; preds = %26
  store i1 false, ptr %2, align 1
  br label %32

32:                                               ; preds = %31, %30
  %33 = load i1, ptr %2, align 1
  ret i1 %33
}

; Function Attrs: inlinehint mustprogress nounwind uwtable
define linkonce_odr hidden noundef zeroext i1 @_ZN10ODDLParser9isNumericIKcEEbT_(i8 noundef signext %0) #12 comdat {
  %2 = alloca i1, align 1
  %3 = alloca i8, align 1
  %4 = alloca i64, align 8
  store i8 %0, ptr %3, align 1
  %5 = load i8, ptr %3, align 1
  %6 = sext i8 %5 to i64
  %7 = icmp uge i64 %6, 256
  br i1 %7, label %8, label %9

8:                                                ; preds = %1
  store i1 false, ptr %2, align 1
  br label %22

9:                                                ; preds = %1
  call void @llvm.lifetime.start.p0(i64 8, ptr %4) #3
  %10 = load i8, ptr %3, align 1
  %11 = sext i8 %10 to i64
  store i64 %11, ptr %4, align 8
  %12 = load i64, ptr %4, align 8
  %13 = icmp ult i64 %12, 256
  br i1 %13, label %14, label %20

14:                                               ; preds = %9
  %15 = load i64, ptr %4, align 8
  %16 = getelementptr inbounds nuw [256 x i8], ptr @_ZN10ODDLParserL14chartype_tableE, i64 0, i64 %15
  %17 = load i8, ptr %16, align 1
  %18 = zext i8 %17 to i32
  %19 = icmp eq i32 %18, 1
  br label %20

20:                                               ; preds = %14, %9
  %21 = phi i1 [ false, %9 ], [ %19, %14 ]
  store i1 %21, ptr %2, align 1
  call void @llvm.lifetime.end.p0(i64 8, ptr %4) #3
  br label %22

22:                                               ; preds = %20, %8
  %23 = load i1, ptr %2, align 1
  ret i1 %23
}

; Function Attrs: inlinehint mustprogress uwtable
define linkonce_odr hidden noundef ptr @_ZN10ODDLParser16lookForNextTokenIcEEPT_S2_S2_(ptr noundef %0, ptr noundef %1) #10 comdat {
  %3 = alloca ptr, align 8
  %4 = alloca ptr, align 8
  store ptr %0, ptr %3, align 8
  store ptr %1, ptr %4, align 8
  br label %5

5:                                                ; preds = %26, %2
  %6 = load ptr, ptr %3, align 8
  %7 = load ptr, ptr %4, align 8
  %8 = icmp ne ptr %6, %7
  br i1 %8, label %9, label %24

9:                                                ; preds = %5
  %10 = load ptr, ptr %3, align 8
  %11 = load i8, ptr %10, align 1
  %12 = call noundef zeroext i1 @_ZN10ODDLParser7isSpaceIcEEbT_(i8 noundef signext %11)
  br i1 %12, label %22, label %13

13:                                               ; preds = %9
  %14 = load ptr, ptr %3, align 8
  %15 = load i8, ptr %14, align 1
  %16 = call noundef zeroext i1 @_ZN10ODDLParser9isNewLineIcEEbT_(i8 noundef signext %15)
  br i1 %16, label %22, label %17

17:                                               ; preds = %13
  %18 = load ptr, ptr %3, align 8
  %19 = load i8, ptr %18, align 1
  %20 = sext i8 %19 to i32
  %21 = icmp eq i32 44, %20
  br label %22

22:                                               ; preds = %17, %13, %9
  %23 = phi i1 [ true, %13 ], [ true, %9 ], [ %21, %17 ]
  br label %24

24:                                               ; preds = %22, %5
  %25 = phi i1 [ false, %5 ], [ %23, %22 ]
  br i1 %25, label %26, label %29

26:                                               ; preds = %24
  %27 = load ptr, ptr %3, align 8
  %28 = getelementptr inbounds nuw i8, ptr %27, i32 1
  store ptr %28, ptr %3, align 8
  br label %5, !llvm.loop !13

29:                                               ; preds = %24
  %30 = load ptr, ptr %3, align 8
  ret ptr %30
}

; Function Attrs: mustprogress uwtable
define hidden noundef ptr @_ZN10ODDLParser13OpenDDLParser15parseIdentifierEPcS1_PPNS_4TextE(ptr noundef %0, ptr noundef %1, ptr noundef %2) #6 align 2 personality ptr @__gxx_personality_v0 {
  %4 = alloca ptr, align 8
  %5 = alloca ptr, align 8
  %6 = alloca ptr, align 8
  %7 = alloca ptr, align 8
  %8 = alloca i64, align 8
  %9 = alloca ptr, align 8
  %10 = alloca i64, align 8
  %11 = alloca ptr, align 8
  %12 = alloca i32, align 4
  store ptr %0, ptr %5, align 8
  store ptr %1, ptr %6, align 8
  store ptr %2, ptr %7, align 8
  %13 = load ptr, ptr %7, align 8
  store ptr null, ptr %13, align 8
  %14 = load ptr, ptr %5, align 8
  %15 = icmp eq ptr null, %14
  br i1 %15, label %20, label %16

16:                                               ; preds = %3
  %17 = load ptr, ptr %5, align 8
  %18 = load ptr, ptr %6, align 8
  %19 = icmp eq ptr %17, %18
  br i1 %19, label %20, label %22

20:                                               ; preds = %16, %3
  %21 = load ptr, ptr %5, align 8
  store ptr %21, ptr %4, align 8
  br label %93

22:                                               ; preds = %16
  %23 = load ptr, ptr %5, align 8
  %24 = load ptr, ptr %6, align 8
  %25 = call noundef ptr @_ZN10ODDLParser16lookForNextTokenIcEEPT_S2_S2_(ptr noundef %23, ptr noundef %24)
  store ptr %25, ptr %5, align 8
  %26 = load ptr, ptr %5, align 8
  %27 = load ptr, ptr %6, align 8
  %28 = icmp eq ptr %26, %27
  br i1 %28, label %29, label %31

29:                                               ; preds = %22
  %30 = load ptr, ptr %5, align 8
  store ptr %30, ptr %4, align 8
  br label %93

31:                                               ; preds = %22
  %32 = load ptr, ptr %5, align 8
  %33 = load i8, ptr %32, align 1
  %34 = call noundef zeroext i1 @_ZN10ODDLParser9isNumericIKcEEbT_(i8 noundef signext %33)
  br i1 %34, label %35, label %37

35:                                               ; preds = %31
  %36 = load ptr, ptr %5, align 8
  store ptr %36, ptr %4, align 8
  br label %93

37:                                               ; preds = %31
  call void @llvm.lifetime.start.p0(i64 8, ptr %8) #3
  store i64 0, ptr %8, align 8
  call void @llvm.lifetime.start.p0(i64 8, ptr %9) #3
  %38 = load ptr, ptr %5, align 8
  store ptr %38, ptr %9, align 8
  br label %39

39:                                               ; preds = %76, %37
  %40 = load ptr, ptr %5, align 8
  %41 = load ptr, ptr %6, align 8
  %42 = icmp ne ptr %40, %41
  br i1 %42, label %43, label %74

43:                                               ; preds = %39
  %44 = load ptr, ptr %5, align 8
  %45 = load i8, ptr %44, align 1
  %46 = call noundef zeroext i1 @_ZN10ODDLParser11isSeparatorIcEEbT_(i8 noundef signext %45)
  br i1 %46, label %74, label %47

47:                                               ; preds = %43
  %48 = load ptr, ptr %5, align 8
  %49 = load i8, ptr %48, align 1
  %50 = call noundef zeroext i1 @_ZN10ODDLParser9isNewLineIcEEbT_(i8 noundef signext %49)
  br i1 %50, label %74, label %51

51:                                               ; preds = %47
  %52 = load ptr, ptr %5, align 8
  %53 = load i8, ptr %52, align 1
  %54 = sext i8 %53 to i32
  %55 = load ptr, ptr @_ZN10ODDLParser7GrammarL17OpenPropertyTokenE, align 8
  %56 = getelementptr inbounds i8, ptr %55, i64 0
  %57 = load i8, ptr %56, align 1
  %58 = sext i8 %57 to i32
  %59 = icmp ne i32 %54, %58
  br i1 %59, label %60, label %74

60:                                               ; preds = %51
  %61 = load ptr, ptr %5, align 8
  %62 = load i8, ptr %61, align 1
  %63 = sext i8 %62 to i32
  %64 = load ptr, ptr @_ZN10ODDLParser7GrammarL18ClosePropertyTokenE, align 8
  %65 = getelementptr inbounds i8, ptr %64, i64 0
  %66 = load i8, ptr %65, align 1
  %67 = sext i8 %66 to i32
  %68 = icmp ne i32 %63, %67
  br i1 %68, label %69, label %74

69:                                               ; preds = %60
  %70 = load ptr, ptr %5, align 8
  %71 = load i8, ptr %70, align 1
  %72 = sext i8 %71 to i32
  %73 = icmp ne i32 %72, 36
  br label %74

74:                                               ; preds = %69, %60, %51, %47, %43, %39
  %75 = phi i1 [ false, %60 ], [ false, %51 ], [ false, %47 ], [ false, %43 ], [ false, %39 ], [ %73, %69 ]
  br i1 %75, label %76, label %81

76:                                               ; preds = %74
  %77 = load ptr, ptr %5, align 8
  %78 = getelementptr inbounds nuw i8, ptr %77, i32 1
  store ptr %78, ptr %5, align 8
  %79 = load i64, ptr %8, align 8
  %80 = add i64 %79, 1
  store i64 %80, ptr %8, align 8
  br label %39, !llvm.loop !12

81:                                               ; preds = %74
  call void @llvm.lifetime.start.p0(i64 8, ptr %10) #3
  %82 = load i64, ptr %8, align 8
  store i64 %82, ptr %10, align 8
  %83 = call noalias noundef nonnull ptr @_Znwm(i64 noundef 24) #21
  %84 = load ptr, ptr %9, align 8
  %85 = load i64, ptr %10, align 8
  invoke void @_ZN10ODDLParser4TextC1EPKcm(ptr noundef nonnull align 8 dereferenceable(24) %83, ptr noundef %84, i64 noundef %85)
          to label %86 unwind label %89

86:                                               ; preds = %81
  %87 = load ptr, ptr %7, align 8
  store ptr %83, ptr %87, align 8
  %88 = load ptr, ptr %5, align 8
  store ptr %88, ptr %4, align 8
  call void @llvm.lifetime.end.p0(i64 8, ptr %10) #3
  call void @llvm.lifetime.end.p0(i64 8, ptr %9) #3
  call void @llvm.lifetime.end.p0(i64 8, ptr %8) #3
  br label %93

89:                                               ; preds = %81
  %90 = landingpad { ptr, i32 }
          cleanup
  %91 = extractvalue { ptr, i32 } %90, 0
  store ptr %91, ptr %11, align 8
  %92 = extractvalue { ptr, i32 } %90, 1
  store i32 %92, ptr %12, align 4
  call void @_ZdlPvm(ptr noundef %83, i64 noundef 24) #20
  call void @llvm.lifetime.end.p0(i64 8, ptr %10) #3
  call void @llvm.lifetime.end.p0(i64 8, ptr %9) #3
  call void @llvm.lifetime.end.p0(i64 8, ptr %8) #3
  br label %95

93:                                               ; preds = %86, %35, %29, %20
  %94 = load ptr, ptr %4, align 8
  ret ptr %94

95:                                               ; preds = %89
  %96 = load ptr, ptr %11, align 8
  %97 = load i32, ptr %12, align 4
  %98 = insertvalue { ptr, i32 } poison, ptr %96, 0
  %99 = insertvalue { ptr, i32 } %98, i32 %97, 1
  resume { ptr, i32 } %99
}