; Function Attrs: mustprogress uwtable
define hidden noundef ptr @_ZN10ODDLParser13OpenDDLParser15parseIdentifierEPcS1_PPNS_4TextE(ptr noundef %0, ptr noundef %1, ptr noundef writeonly captures(none) initializes((0, 8)) %2) local_unnamed_addr #6 align 2 personality ptr @__gxx_personality_v0 {
  %4 = ptrtoint ptr %1 to i64
  store ptr null, ptr %2, align 8
  %5 = icmp eq ptr %0, null
  %6 = icmp eq ptr %0, %1
  %or.cond = or i1 %5, %6
  br i1 %or.cond, label %28, label %.lr.ph.preheader.i

.lr.ph.preheader.i:                               ; preds = %3
  %7 = ptrtoint ptr %0 to i64
  %8 = sub i64 %4, %7
  %scevgep.i = getelementptr i8, ptr %0, i64 %8
  br label %.lr.ph.i

.lr.ph.i:                                         ; preds = %.critedge2.i, %.lr.ph.preheader.i
  %.010.i = phi ptr [ %10, %.critedge2.i ], [ %0, %.lr.ph.preheader.i ]
  %9 = load i8, ptr %.010.i, align 1
  switch i8 %9, label %_ZN10ODDLParser16lookForNextTokenIcEEPT_S2_S2_.exit [
    i8 32, label %.critedge2.i
    i8 9, label %.critedge2.i
    i8 13, label %.critedge2.i
    i8 10, label %.critedge2.i
    i8 44, label %.critedge2.i
  ]

.critedge2.i:                                     ; preds = %.lr.ph.i, %.lr.ph.i, %.lr.ph.i, %.lr.ph.i, %.lr.ph.i
  %10 = getelementptr inbounds nuw i8, ptr %.010.i, i64 1
  %.not.i = icmp eq ptr %10, %1
  br i1 %.not.i, label %_ZN10ODDLParser16lookForNextTokenIcEEPT_S2_S2_.exit, label %.lr.ph.i, !llvm.loop !8

_ZN10ODDLParser16lookForNextTokenIcEEPT_S2_S2_.exit: ; preds = %.lr.ph.i, %.critedge2.i
  %.0.lcssa.i = phi ptr [ %.010.i, %.lr.ph.i ], [ %scevgep.i, %.critedge2.i ]
  %.0.lcssa.i74 = ptrtoint ptr %.0.lcssa.i to i64
  %11 = icmp eq ptr %.0.lcssa.i, %1
  br i1 %11, label %28, label %12

12:                                               ; preds = %_ZN10ODDLParser16lookForNextTokenIcEEPT_S2_S2_.exit
  %13 = load i8, ptr %.0.lcssa.i, align 1
  %14 = icmp slt i8 %13, 0
  br i1 %14, label %.lr.ph.preheader, label %15

15:                                               ; preds = %12
  %16 = zext nneg i8 %13 to i64
  %17 = getelementptr inbounds nuw [256 x i8], ptr @_ZN10ODDLParserL14chartype_tableE, i64 0, i64 %16
  %18 = load i8, ptr %17, align 1
  %19 = icmp eq i8 %18, 1
  br i1 %19, label %28, label %.lr.ph.preheader

.lr.ph.preheader:                                 ; preds = %12, %15
  %20 = sub i64 %4, %.0.lcssa.i74
  %scevgep = getelementptr i8, ptr %.0.lcssa.i, i64 %20
  br label %.lr.ph

.lr.ph:                                           ; preds = %.lr.ph.preheader, %_ZN10ODDLParser9isNumericIKcEEbT_.exit
  %.02940 = phi ptr [ %22, %_ZN10ODDLParser9isNumericIKcEEbT_.exit ], [ %.0.lcssa.i, %.lr.ph.preheader ]
  %.03039 = phi i64 [ %23, %_ZN10ODDLParser9isNumericIKcEEbT_.exit ], [ 0, %.lr.ph.preheader ]
  %21 = load i8, ptr %.02940, align 1
  switch i8 %21, label %_ZN10ODDLParser9isNumericIKcEEbT_.exit [
    i8 125, label %.critedge
    i8 123, label %.critedge
    i8 91, label %.critedge
    i8 44, label %.critedge
    i8 41, label %.critedge
    i8 40, label %.critedge
    i8 32, label %.critedge
    i8 9, label %.critedge
    i8 13, label %.critedge
    i8 10, label %.critedge
    i8 36, label %.critedge
  ]

_ZN10ODDLParser9isNumericIKcEEbT_.exit:           ; preds = %.lr.ph
  %22 = getelementptr inbounds nuw i8, ptr %.02940, i64 1
  %23 = add i64 %.03039, 1
  %.not = icmp eq ptr %22, %1
  br i1 %.not, label %.critedge, label %.lr.ph, !llvm.loop !12

.critedge:                                        ; preds = %_ZN10ODDLParser9isNumericIKcEEbT_.exit, %.lr.ph, %.lr.ph, %.lr.ph, %.lr.ph, %.lr.ph, %.lr.ph, %.lr.ph, %.lr.ph, %.lr.ph, %.lr.ph, %.lr.ph
  %.030.lcssa.ph = phi i64 [ %20, %_ZN10ODDLParser9isNumericIKcEEbT_.exit ], [ %.03039, %.lr.ph ], [ %.03039, %.lr.ph ], [ %.03039, %.lr.ph ], [ %.03039, %.lr.ph ], [ %.03039, %.lr.ph ], [ %.03039, %.lr.ph ], [ %.03039, %.lr.ph ], [ %.03039, %.lr.ph ], [ %.03039, %.lr.ph ], [ %.03039, %.lr.ph ], [ %.03039, %.lr.ph ]
  %.029.lcssa.ph = phi ptr [ %scevgep, %_ZN10ODDLParser9isNumericIKcEEbT_.exit ], [ %.02940, %.lr.ph ], [ %.02940, %.lr.ph ], [ %.02940, %.lr.ph ], [ %.02940, %.lr.ph ], [ %.02940, %.lr.ph ], [ %.02940, %.lr.ph ], [ %.02940, %.lr.ph ], [ %.02940, %.lr.ph ], [ %.02940, %.lr.ph ], [ %.02940, %.lr.ph ], [ %.02940, %.lr.ph ]
  %24 = tail call noalias noundef nonnull dereferenceable(24) ptr @_Znwm(i64 noundef 24) #33
  invoke void @_ZN10ODDLParser4TextC1EPKcm(ptr noundef nonnull align 8 dereferenceable(24) %24, ptr noundef nonnull %.0.lcssa.i, i64 noundef %.030.lcssa.ph)
          to label %25 unwind label %26

25:                                               ; preds = %.critedge
  store ptr %24, ptr %2, align 8
  br label %28

26:                                               ; preds = %.critedge
  %27 = landingpad { ptr, i32 }
          cleanup
  tail call void @_ZdlPvm(ptr noundef nonnull %24, i64 noundef 24) #30
  resume { ptr, i32 } %27

28:                                               ; preds = %15, %_ZN10ODDLParser16lookForNextTokenIcEEPT_S2_S2_.exit, %3, %25
  %.0 = phi ptr [ %.029.lcssa.ph, %25 ], [ %0, %3 ], [ %.0.lcssa.i, %_ZN10ODDLParser16lookForNextTokenIcEEPT_S2_S2_.exit ], [ %.0.lcssa.i, %15 ]
  ret ptr %.0
}